target datalayout = "e-m:e-p270:32:32-p271:32:32-p272:64:64-i64:64-i128:128-f80:128-n8:16:32:64-S128"
target triple = "x86_64-pc-linux-gnu"

%"class.std::__cxx11::basic_string" = type { %"struct.std::__cxx11::basic_string<char>::_Alloc_hider", i64, %union.anon }
%"struct.std::__cxx11::basic_string<char>::_Alloc_hider" = type { ptr }
%union.anon = type { i64, [8 x i8] }
%"class.duckdb::BaseSecret" = type <{ ptr, %"class.duckdb::vector", %"class.std::__cxx11::basic_string", %"class.std::__cxx11::basic_string", %"class.std::__cxx11::basic_string", i8, [7 x i8] }>
%"class.duckdb::vector" = type { %"class.std::vector" }
%"class.std::vector" = type { %"struct.std::_Vector_base" }
%"struct.std::_Vector_base" = type { %"struct.std::_Vector_base<std::__cxx11::basic_string<char>, std::allocator<std::__cxx11::basic_string<char>>>::_Vector_impl" }
%"struct.std::_Vector_base<std::__cxx11::basic_string<char>, std::allocator<std::__cxx11::basic_string<char>>>::_Vector_impl" = type { %"struct.std::_Vector_base<std::__cxx11::basic_string<char>, std::allocator<std::__cxx11::basic_string<char>>>::_Vector_impl_data" }
%"struct.std::_Vector_base<std::__cxx11::basic_string<char>, std::allocator<std::__cxx11::basic_string<char>>>::_Vector_impl_data" = type { ptr, ptr, ptr }
%"struct.std::__detail::_Hash_node_base" = type { ptr }
%"struct.std::__detail::_Prime_rehash_policy" = type { float, i64 }
%"class.duckdb::Value" = type { %"struct.duckdb::LogicalType", i8, %"union.duckdb::Value::Val", %"class.duckdb::shared_ptr.72" }
%"struct.duckdb::LogicalType" = type { i8, i8, %"class.duckdb::shared_ptr" }
%"class.duckdb::shared_ptr" = type { %"class.std::shared_ptr" }
%"class.std::shared_ptr" = type { %"class.std::__shared_ptr" }
%"class.std::__shared_ptr" = type { ptr, %"class.std::__shared_count" }
%"class.std::__shared_count" = type { ptr }
%"union.duckdb::Value::Val" = type { %"struct.duckdb::hugeint_t" }
%"struct.duckdb::hugeint_t" = type { i64, i64 }
%"class.duckdb::shared_ptr.72" = type { %"class.std::shared_ptr.73" }
%"class.std::shared_ptr.73" = type { %"class.std::__shared_ptr.74" }
%"class.std::__shared_ptr.74" = type { ptr, %"class.std::__shared_count" }
%"struct.duckdb::SecretMatch" = type { %"class.duckdb::unique_ptr.481", i64 }
%"class.duckdb::unique_ptr.481" = type { %"class.std::unique_ptr.482" }
%"class.std::unique_ptr.482" = type { %"struct.std::__uniq_ptr_data.483" }
%"struct.std::__uniq_ptr_data.483" = type { %"class.std::__uniq_ptr_impl.484" }
%"class.std::__uniq_ptr_impl.484" = type { %"class.std::tuple.485" }
%"class.std::tuple.485" = type { %"struct.std::_Tuple_impl.486" }
%"struct.std::_Tuple_impl.486" = type { %"struct.std::_Head_base.489" }
%"struct.std::_Head_base.489" = type { ptr }
%"struct.duckdb::SecretEntry" = type { i8, %"class.std::__cxx11::basic_string", %"class.duckdb::unique_ptr.546" }
%"class.duckdb::unique_ptr.546" = type { %"class.std::unique_ptr.547" }
%"class.std::unique_ptr.547" = type { %"struct.std::__uniq_ptr_data.548" }
%"struct.std::__uniq_ptr_data.548" = type { %"class.std::__uniq_ptr_impl.549" }
%"class.std::__uniq_ptr_impl.549" = type { %"class.std::tuple.550" }
%"class.std::tuple.550" = type { %"struct.std::_Tuple_impl.551" }
%"struct.std::_Tuple_impl.551" = type { %"struct.std::_Head_base.554" }
%"struct.std::_Head_base.554" = type { ptr }
%"struct.duckdb::SecretCatalogEntry" = type { %"class.duckdb::InCatalogEntry", %"class.duckdb::unique_ptr.481" }
%"class.duckdb::InCatalogEntry" = type { %"class.duckdb::CatalogEntry", ptr }
%"class.duckdb::CatalogEntry" = type { ptr, i64, i8, %"class.duckdb::optional_ptr.521", %"class.std::__cxx11::basic_string", i8, i8, i8, %"struct.std::atomic.435", %"class.duckdb::Value", %"class.std::unordered_map.522", %"class.duckdb::unique_ptr.536", %"class.duckdb::optional_ptr.545" }
%"class.duckdb::optional_ptr.521" = type { ptr }
%"struct.std::atomic.435" = type { %"struct.std::__atomic_base.436" }
%"struct.std::__atomic_base.436" = type { i64 }
%"class.std::unordered_map.522" = type { %"class.std::_Hashtable.523" }
%"class.std::_Hashtable.523" = type { ptr, i64, %"struct.std::__detail::_Hash_node_base", i64, %"struct.std::__detail::_Prime_rehash_policy", ptr }
%"class.duckdb::unique_ptr.536" = type { %"class.std::unique_ptr.537" }
%"class.std::unique_ptr.537" = type { %"struct.std::__uniq_ptr_data.538" }
%"struct.std::__uniq_ptr_data.538" = type { %"class.std::__uniq_ptr_impl.539" }
%"class.std::__uniq_ptr_impl.539" = type { %"class.std::tuple.540" }
%"class.std::tuple.540" = type { %"struct.std::_Tuple_impl.541" }
%"struct.std::_Tuple_impl.541" = type { %"struct.std::_Head_base.544" }
%"struct.std::_Head_base.544" = type { ptr }
%"class.duckdb::optional_ptr.545" = type { ptr }
%"class.duckdb::SecretStorage" = type <{ ptr, %"class.std::__cxx11::basic_string", i64, i8, [7 x i8] }>
%class.anon.740 = type { ptr, ptr, ptr, ptr }

; Function Attrs: mustprogress nounwind uwtable
define linkonce_odr void @_ZN6duckdb16DynamicCastCheckINS_18SecretCatalogEntryENS_12CatalogEntryEEEvPKT0_(ptr noundef %0) #6 comdat {
  %2 = alloca ptr, align 8
  store ptr %0, ptr %2, align 8, !tbaa !797
  ret void
}

; Function Attrs: mustprogress nounwind uwtable
define linkonce_odr noundef nonnull align 8 dereferenceable(32) ptr @_ZNK6duckdb10BaseSecret7GetTypeB5cxx11Ev(ptr noundef nonnull align 8 dereferenceable(129) %0) #6 comdat align 2 {
  %2 = alloca ptr, align 8
  store ptr %0, ptr %2, align 8, !tbaa !3
  %3 = load ptr, ptr %2, align 8
  %4 = getelementptr inbounds nuw %"class.duckdb::BaseSecret", ptr %3, i32 0, i32 2
  ret ptr %4
}

; Function Attrs: mustprogress uwtable
define linkonce_odr noundef nonnull align 8 dereferenceable(232) ptr @_ZN6duckdb12CatalogEntry4CastINS_18SecretCatalogEntryEEERT_v(ptr noundef nonnull align 8 dereferenceable(216) %0) #4 comdat align 2 {
  %2 = alloca ptr, align 8
  store ptr %0, ptr %2, align 8, !tbaa !797
  %3 = load ptr, ptr %2, align 8
  call void @_ZN6duckdb16DynamicCastCheckINS_18SecretCatalogEntryENS_12CatalogEntryEEEvPKT0_(ptr noundef %3)
  ret ptr %3
}

; Function Attrs: inlinehint mustprogress uwtable
define internal void @"_ZZN6duckdb23CatalogSetSecretStorage12LookupSecretERKNSt7__cxx1112basic_stringIcSt11char_traitsIcESaIcEEES8_NS_12optional_ptrINS_18CatalogTransactionELb1EEEENK3$_0clERNS_12CatalogEntryE"(ptr noundef nonnull align 8 dereferenceable(32) %0, ptr noundef nonnull align 8 dereferenceable(216) %1) #8 align 2 personality ptr @__gxx_personality_v0 {
  %3 = alloca ptr, align 8
  %4 = alloca ptr, align 8
  %5 = alloca ptr, align 8
  %6 = alloca %"struct.duckdb::SecretMatch", align 8
  %7 = alloca ptr, align 8
  %8 = alloca i32, align 4
  store ptr %0, ptr %3, align 8, !tbaa !800
  store ptr %1, ptr %4, align 8, !tbaa !797
  %9 = load ptr, ptr %3, align 8
  %10 = getelementptr inbounds nuw %class.anon.740, ptr %9, i32 0, i32 3
  %11 = load ptr, ptr %10, align 8, !tbaa !805
  call void @llvm.lifetime.start.p0(i64 8, ptr %5) #3
  %12 = load ptr, ptr %4, align 8, !tbaa !797
  %13 = call noundef nonnull align 8 dereferenceable(232) ptr @_ZN6duckdb12CatalogEntry4CastINS_18SecretCatalogEntryEEERT_v(ptr noundef nonnull align 8 dereferenceable(216) %12)
  store ptr %13, ptr %5, align 8, !tbaa !192
  %14 = load ptr, ptr %5, align 8, !tbaa !192
  %15 = getelementptr inbounds nuw %"struct.duckdb::SecretCatalogEntry", ptr %14, i32 0, i32 1
  %16 = call noundef ptr @_ZNK6duckdb10unique_ptrINS_11SecretEntryESt14default_deleteIS1_ELb1EEptEv(ptr noundef nonnull align 8 dereferenceable(8) %15)
  %17 = getelementptr inbounds nuw %"struct.duckdb::SecretEntry", ptr %16, i32 0, i32 2
  %18 = call noundef ptr @_ZNK6duckdb10unique_ptrIKNS_10BaseSecretESt14default_deleteIS2_ELb1EEptEv(ptr noundef nonnull align 8 dereferenceable(8) %17)
  %19 = call noundef nonnull align 8 dereferenceable(32) ptr @_ZNK6duckdb10BaseSecret7GetTypeB5cxx11Ev(ptr noundef nonnull align 8 dereferenceable(129) %18)
  %20 = getelementptr inbounds nuw %class.anon.740, ptr %9, i32 0, i32 0
  %21 = load ptr, ptr %20, align 8, !tbaa !2358
  %22 = call noundef zeroext i1 @_ZN6duckdb10StringUtil8CIEqualsERKNSt7__cxx1112basic_stringIcSt11char_traitsIcESaIcEEES8_(ptr noundef nonnull align 8 dereferenceable(32) %19, ptr noundef nonnull align 8 dereferenceable(32) %21)
  br i1 %22, label %23, label %41

23:                                               ; preds = %2
  call void @llvm.lifetime.start.p0(i64 16, ptr %6) #3
  %24 = load ptr, ptr %5, align 8, !tbaa !192
  %25 = getelementptr inbounds nuw %"struct.duckdb::SecretCatalogEntry", ptr %24, i32 0, i32 1
  %26 = call noundef nonnull align 8 dereferenceable(48) ptr @_ZNK6duckdb10unique_ptrINS_11SecretEntryESt14default_deleteIS1_ELb1EEdeEv(ptr noundef nonnull align 8 dereferenceable(8) %25)
  %27 = getelementptr inbounds nuw %class.anon.740, ptr %9, i32 0, i32 2
  %28 = load ptr, ptr %27, align 8, !tbaa !2359
  %29 = getelementptr inbounds nuw %"class.duckdb::SecretStorage", ptr %11, i32 0, i32 2
  %30 = load i64, ptr %29, align 8, !tbaa !286
  %31 = getelementptr inbounds nuw %class.anon.740, ptr %9, i32 0, i32 1
  %32 = load ptr, ptr %31, align 8, !tbaa !2360
  call void @_ZN6duckdb13SecretStorage15SelectBestMatchERNS_11SecretEntryERKNSt7__cxx1112basic_stringIcSt11char_traitsIcESaIcEEElRNS_11SecretMatchE(ptr dead_on_unwind writable sret(%"struct.duckdb::SecretMatch") align 8 %6, ptr noundef nonnull align 8 dereferenceable(48) %26, ptr noundef nonnull align 8 dereferenceable(32) %28, i64 noundef %30, ptr noundef nonnull align 8 dereferenceable(16) %32)
  %33 = getelementptr inbounds nuw %class.anon.740, ptr %9, i32 0, i32 1
  %34 = load ptr, ptr %33, align 8, !tbaa !2360
  %35 = invoke noundef nonnull align 8 dereferenceable(16) ptr @_ZN6duckdb11SecretMatchaSERKS0_(ptr noundef nonnull align 8 dereferenceable(16) %34, ptr noundef nonnull align 8 dereferenceable(16) %6)
          to label %36 unwind label %37

36:                                               ; preds = %23
  call void @_ZN6duckdb11SecretMatchD2Ev(ptr noundef nonnull align 8 dereferenceable(16) %6) #3
  call void @llvm.lifetime.end.p0(i64 16, ptr %6) #3
  br label %41

37:                                               ; preds = %23
  %38 = landingpad { ptr, i32 }
          cleanup
  %39 = extractvalue { ptr, i32 } %38, 0
  store ptr %39, ptr %7, align 8
  %40 = extractvalue { ptr, i32 } %38, 1
  store i32 %40, ptr %8, align 4
  call void @_ZN6duckdb11SecretMatchD2Ev(ptr noundef nonnull align 8 dereferenceable(16) %6) #3
  call void @llvm.lifetime.end.p0(i64 16, ptr %6) #3
  call void @llvm.lifetime.end.p0(i64 8, ptr %5) #3
  br label %42

41:                                               ; preds = %36, %2
  call void @llvm.lifetime.end.p0(i64 8, ptr %5) #3
  ret void

42:                                               ; preds = %37
  %43 = load ptr, ptr %7, align 8
  %44 = load i32, ptr %8, align 4
  %45 = insertvalue { ptr, i32 } poison, ptr %43, 0
  %46 = insertvalue { ptr, i32 } %45, i32 %44, 1
  resume { ptr, i32 } %46
}

; Function Attrs: mustprogress nounwind uwtable
define linkonce_odr noundef ptr @_ZNKSt9_Any_data9_M_accessEv(ptr noundef nonnull align 8 dereferenceable(16) %0) #6 comdat align 2 {
  %2 = alloca ptr, align 8
  store ptr %0, ptr %2, align 8, !tbaa !2350
  %3 = load ptr, ptr %2, align 8
  %4 = getelementptr inbounds [16 x i8], ptr %3, i64 0, i64 0
  ret ptr %4
}

; Function Attrs: mustprogress uwtable
define internal void @"_ZSt13__invoke_implIvRZN6duckdb23CatalogSetSecretStorage12LookupSecretERKNSt7__cxx1112basic_stringIcSt11char_traitsIcESaIcEEES9_NS0_12optional_ptrINS0_18CatalogTransactionELb1EEEE3$_0JRNS0_12CatalogEntryEEET_St14__invoke_otherOT0_DpOT1_"(ptr noundef nonnull align 8 dereferenceable(32) %0, ptr noundef nonnull align 8 dereferenceable(216) %1) #4 {
  %3 = alloca ptr, align 8
  %4 = alloca ptr, align 8
  store ptr %0, ptr %3, align 8, !tbaa !800
  store ptr %1, ptr %4, align 8, !tbaa !797
  %5 = load ptr, ptr %3, align 8, !tbaa !800
  %6 = load ptr, ptr %4, align 8, !tbaa !797
  call void @"_ZZN6duckdb23CatalogSetSecretStorage12LookupSecretERKNSt7__cxx1112basic_stringIcSt11char_traitsIcESaIcEEES8_NS_12optional_ptrINS_18CatalogTransactionELb1EEEENK3$_0clERNS_12CatalogEntryE"(ptr noundef nonnull align 8 dereferenceable(32) %5, ptr noundef nonnull align 8 dereferenceable(216) %6)
  ret void
}

; Function Attrs: mustprogress nounwind uwtable
define internal noundef nonnull align 8 dereferenceable(8) ptr @"_ZNKSt9_Any_data9_M_accessIPZN6duckdb23CatalogSetSecretStorage12LookupSecretERKNSt7__cxx1112basic_stringIcSt11char_traitsIcESaIcEEESA_NS1_12optional_ptrINS1_18CatalogTransactionELb1EEEE3$_0EERKT_v"(ptr noundef nonnull align 8 dereferenceable(16) %0) #6 align 2 {
  %2 = alloca ptr, align 8
  store ptr %0, ptr %2, align 8, !tbaa !2350
  %3 = load ptr, ptr %2, align 8
  %4 = call noundef ptr @_ZNKSt9_Any_data9_M_accessEv(ptr noundef nonnull align 8 dereferenceable(16) %3) #3
  ret ptr %4
}

; Function Attrs: mustprogress uwtable
define internal void @"_ZSt10__invoke_rIvRZN6duckdb23CatalogSetSecretStorage12LookupSecretERKNSt7__cxx1112basic_stringIcSt11char_traitsIcESaIcEEES9_NS0_12optional_ptrINS0_18CatalogTransactionELb1EEEE3$_0JRNS0_12CatalogEntryEEENSt9enable_ifIXsr6__and_ISt7is_voidIT_ESt14__is_invocableIT0_JDpT1_EEEE5valueESJ_E4typeEOSM_DpOSN_"(ptr noundef nonnull align 8 dereferenceable(32) %0, ptr noundef nonnull align 8 dereferenceable(216) %1) #4 {
  %3 = alloca ptr, align 8
  %4 = alloca ptr, align 8
  store ptr %0, ptr %3, align 8, !tbaa !800
  store ptr %1, ptr %4, align 8, !tbaa !797
  %5 = load ptr, ptr %3, align 8, !tbaa !800
  %6 = load ptr, ptr %4, align 8, !tbaa !797
  call void @"_ZSt13__invoke_implIvRZN6duckdb23CatalogSetSecretStorage12LookupSecretERKNSt7__cxx1112basic_stringIcSt11char_traitsIcESaIcEEES9_NS0_12optional_ptrINS0_18CatalogTransactionELb1EEEE3$_0JRNS0_12CatalogEntryEEET_St14__invoke_otherOT0_DpOT1_"(ptr noundef nonnull align 8 dereferenceable(32) %5, ptr noundef nonnull align 8 dereferenceable(216) %6)
  ret void
}

; Function Attrs: mustprogress nounwind uwtable
define internal noundef ptr @"_ZNSt14_Function_base13_Base_managerIZN6duckdb23CatalogSetSecretStorage12LookupSecretERKNSt7__cxx1112basic_stringIcSt11char_traitsIcESaIcEEESA_NS1_12optional_ptrINS1_18CatalogTransactionELb1EEEE3$_0E14_M_get_pointerERKSt9_Any_data"(ptr noundef nonnull align 8 dereferenceable(16) %0) #6 align 2 {
  %2 = alloca ptr, align 8
  store ptr %0, ptr %2, align 8, !tbaa !2350
  %3 = load ptr, ptr %2, align 8, !tbaa !2350
  %4 = call noundef nonnull align 8 dereferenceable(8) ptr @"_ZNKSt9_Any_data9_M_accessIPZN6duckdb23CatalogSetSecretStorage12LookupSecretERKNSt7__cxx1112basic_stringIcSt11char_traitsIcESaIcEEESA_NS1_12optional_ptrINS1_18CatalogTransactionELb1EEEE3$_0EERKT_v"(ptr noundef nonnull align 8 dereferenceable(16) %3) #3
  %5 = load ptr, ptr %4, align 8, !tbaa !800
  ret ptr %5
}

; Function Attrs: mustprogress uwtable
define internal void @"_ZNSt17_Function_handlerIFvRN6duckdb12CatalogEntryEEZNS0_23CatalogSetSecretStorage12LookupSecretERKNSt7__cxx1112basic_stringIcSt11char_traitsIcESaIcEEESC_NS0_12optional_ptrINS0_18CatalogTransactionELb1EEEE3$_0E9_M_invokeERKSt9_Any_dataS2_"(ptr noundef nonnull align 8 dereferenceable(16) %0, ptr noundef nonnull align 8 dereferenceable(216) %1) #4 align 2 {
  %3 = alloca ptr, align 8
  %4 = alloca ptr, align 8
  store ptr %0, ptr %3, align 8, !tbaa !2350
  store ptr %1, ptr %4, align 8, !tbaa !797
  %5 = load ptr, ptr %3, align 8, !tbaa !2350
  %6 = call noundef ptr @"_ZNSt14_Function_base13_Base_managerIZN6duckdb23CatalogSetSecretStorage12LookupSecretERKNSt7__cxx1112basic_stringIcSt11char_traitsIcESaIcEEESA_NS1_12optional_ptrINS1_18CatalogTransactionELb1EEEE3$_0E14_M_get_pointerERKSt9_Any_data"(ptr noundef nonnull align 8 dereferenceable(16) %5) #3
  %7 = load ptr, ptr %4, align 8, !tbaa !797
  call void @"_ZSt10__invoke_rIvRZN6duckdb23CatalogSetSecretStorage12LookupSecretERKNSt7__cxx1112basic_stringIcSt11char_traitsIcESaIcEEES9_NS0_12optional_ptrINS0_18CatalogTransactionELb1EEEE3$_0JRNS0_12CatalogEntryEEENSt9enable_ifIXsr6__and_ISt7is_voidIT_ESt14__is_invocableIT0_JDpT1_EEEE5valueESJ_E4typeEOSM_DpOSN_"(ptr noundef nonnull align 8 dereferenceable(32) %6, ptr noundef nonnull align 8 dereferenceable(216) %7)
  ret void
}