; Function Attrs: mustprogress uwtable
define internal void @"_ZNSt17_Function_handlerIFvRN6duckdb12CatalogEntryEEZNS0_23CatalogSetSecretStorage12LookupSecretERKNSt7__cxx1112basic_stringIcSt11char_traitsIcESaIcEEESC_NS0_12optional_ptrINS0_18CatalogTransactionELb1EEEE3$_0E9_M_invokeERKSt9_Any_dataS2_"(ptr noundef nonnull readonly align 8 captures(none) dereferenceable(16) %0, ptr noundef nonnull align 8 dereferenceable(216) %1) #3 align 2 personality ptr @__gxx_personality_v0 {
  %3 = alloca %"struct.duckdb::SecretMatch", align 8
  %.val = load ptr, ptr %0, align 8, !tbaa !756
  %4 = getelementptr inbounds nuw i8, ptr %.val, i64 24
  %5 = load ptr, ptr %4, align 8, !tbaa !1160
  %6 = getelementptr inbounds nuw i8, ptr %1, i64 224
  %7 = tail call noundef ptr @_ZNK6duckdb10unique_ptrINS_11SecretEntryESt14default_deleteIS1_ELb1EEptEv(ptr noundef nonnull align 8 dereferenceable(8) %6)
  %8 = getelementptr inbounds nuw i8, ptr %7, i64 40
  %9 = tail call noundef ptr @_ZNK6duckdb10unique_ptrIKNS_10BaseSecretESt14default_deleteIS2_ELb1EEptEv(ptr noundef nonnull align 8 dereferenceable(8) %8)
  %10 = getelementptr inbounds nuw i8, ptr %9, i64 32
  %11 = load ptr, ptr %.val, align 8, !tbaa !1162
  %12 = tail call noundef zeroext i1 @_ZN6duckdb10StringUtil8CIEqualsERKNSt7__cxx1112basic_stringIcSt11char_traitsIcESaIcEEES8_(ptr noundef nonnull align 8 dereferenceable(32) %10, ptr noundef nonnull align 8 dereferenceable(32) %11)
  br i1 %12, label %13, label %"_ZSt10__invoke_rIvRZN6duckdb23CatalogSetSecretStorage12LookupSecretERKNSt7__cxx1112basic_stringIcSt11char_traitsIcESaIcEEES9_NS0_12optional_ptrINS0_18CatalogTransactionELb1EEEE3$_0JRNS0_12CatalogEntryEEENSt9enable_ifIXsr6__and_ISt7is_voidIT_ESt14__is_invocableIT0_JDpT1_EEEE5valueESJ_E4typeEOSM_DpOSN_.exit"

13:                                               ; preds = %2
  call void @llvm.lifetime.start.p0(i64 16, ptr nonnull %3) #33
  %14 = tail call noundef nonnull align 8 dereferenceable(48) ptr @_ZNK6duckdb10unique_ptrINS_11SecretEntryESt14default_deleteIS1_ELb1EEdeEv(ptr noundef nonnull align 8 dereferenceable(8) %6)
  %15 = getelementptr inbounds nuw i8, ptr %.val, i64 16
  %16 = load ptr, ptr %15, align 8, !tbaa !1163
  %17 = getelementptr inbounds nuw i8, ptr %5, i64 40
  %18 = load i64, ptr %17, align 8, !tbaa !268
  %19 = getelementptr inbounds nuw i8, ptr %.val, i64 8
  %20 = load ptr, ptr %19, align 8, !tbaa !1164
  call void @_ZN6duckdb13SecretStorage15SelectBestMatchERNS_11SecretEntryERKNSt7__cxx1112basic_stringIcSt11char_traitsIcESaIcEEElRNS_11SecretMatchE(ptr dead_on_unwind nonnull writable sret(%"struct.duckdb::SecretMatch") align 8 %3, ptr noundef nonnull align 8 dereferenceable(48) %14, ptr noundef nonnull align 8 dereferenceable(32) %16, i64 noundef %18, ptr noundef nonnull align 8 dereferenceable(16) %20)
  %21 = load ptr, ptr %19, align 8, !tbaa !1164
  %22 = invoke noundef nonnull align 8 dereferenceable(16) ptr @_ZN6duckdb11SecretMatchaSERKS0_(ptr noundef nonnull align 8 dereferenceable(16) %21, ptr noundef nonnull align 8 dereferenceable(16) %3)
          to label %23 unwind label %38

23:                                               ; preds = %13
  %24 = load ptr, ptr %3, align 8, !tbaa !139
  %.not.i.i.i.i.i = icmp eq ptr %24, null
  br i1 %.not.i.i.i.i.i, label %_ZN6duckdb11SecretMatchD2Ev.exit.i.i.i, label %25

25:                                               ; preds = %23
  %26 = getelementptr inbounds nuw i8, ptr %24, i64 40
  %27 = load ptr, ptr %26, align 8, !tbaa !140
  %.not.i.i.i.i.i.i.i.i = icmp eq ptr %27, null
  br i1 %.not.i.i.i.i.i.i.i.i, label %_ZNSt10unique_ptrIKN6duckdb10BaseSecretESt14default_deleteIS2_EED2Ev.exit.i.i.i.i.i.i.i, label %_ZNKSt14default_deleteIKN6duckdb10BaseSecretEEclEPS2_.exit.i.i.i.i.i.i.i.i

_ZNKSt14default_deleteIKN6duckdb10BaseSecretEEclEPS2_.exit.i.i.i.i.i.i.i.i: ; preds = %25
  %28 = load ptr, ptr %27, align 8, !tbaa !17
  %29 = getelementptr inbounds nuw i8, ptr %28, i64 8
  %30 = load ptr, ptr %29, align 8
  call void %30(ptr noundef nonnull align 8 dereferenceable(129) %27) #33
  br label %_ZNSt10unique_ptrIKN6duckdb10BaseSecretESt14default_deleteIS2_EED2Ev.exit.i.i.i.i.i.i.i

_ZNSt10unique_ptrIKN6duckdb10BaseSecretESt14default_deleteIS2_EED2Ev.exit.i.i.i.i.i.i.i: ; preds = %_ZNKSt14default_deleteIKN6duckdb10BaseSecretEEclEPS2_.exit.i.i.i.i.i.i.i.i, %25
  store ptr null, ptr %26, align 8, !tbaa !140
  %31 = getelementptr inbounds nuw i8, ptr %24, i64 8
  %32 = load ptr, ptr %31, align 8, !tbaa !14
  %33 = getelementptr inbounds nuw i8, ptr %24, i64 24
  %34 = icmp eq ptr %32, %33
  br i1 %34, label %_ZNKSt7__cxx1112basic_stringIcSt11char_traitsIcESaIcEE11_M_is_localEv.exit.thread.i.i.i.i.i.i.i.i.i, label %_ZNKSt7__cxx1112basic_stringIcSt11char_traitsIcESaIcEE11_M_is_localEv.exit.i.i.i.i.i.i.i.i.i

_ZNKSt7__cxx1112basic_stringIcSt11char_traitsIcESaIcEE11_M_is_localEv.exit.thread.i.i.i.i.i.i.i.i.i: ; preds = %_ZNSt10unique_ptrIKN6duckdb10BaseSecretESt14default_deleteIS2_EED2Ev.exit.i.i.i.i.i.i.i
  %35 = getelementptr inbounds nuw i8, ptr %24, i64 16
  %36 = load i64, ptr %35, align 8, !tbaa !8
  %37 = icmp ult i64 %36, 16
  call void @llvm.assume(i1 %37)
  br label %_ZNKSt14default_deleteIN6duckdb11SecretEntryEEclEPS1_.exit.i.i.i.i.i

_ZNKSt7__cxx1112basic_stringIcSt11char_traitsIcESaIcEE11_M_is_localEv.exit.i.i.i.i.i.i.i.i.i: ; preds = %_ZNSt10unique_ptrIKN6duckdb10BaseSecretESt14default_deleteIS2_EED2Ev.exit.i.i.i.i.i.i.i
  call void @_ZdlPv(ptr noundef %32) #34
  br label %_ZNKSt14default_deleteIN6duckdb11SecretEntryEEclEPS1_.exit.i.i.i.i.i

_ZNKSt14default_deleteIN6duckdb11SecretEntryEEclEPS1_.exit.i.i.i.i.i: ; preds = %_ZNKSt7__cxx1112basic_stringIcSt11char_traitsIcESaIcEE11_M_is_localEv.exit.i.i.i.i.i.i.i.i.i, %_ZNKSt7__cxx1112basic_stringIcSt11char_traitsIcESaIcEE11_M_is_localEv.exit.thread.i.i.i.i.i.i.i.i.i
  call void @_ZdlPv(ptr noundef nonnull %24) #34
  br label %_ZN6duckdb11SecretMatchD2Ev.exit.i.i.i

_ZN6duckdb11SecretMatchD2Ev.exit.i.i.i:           ; preds = %_ZNKSt14default_deleteIN6duckdb11SecretEntryEEclEPS1_.exit.i.i.i.i.i, %23
  call void @llvm.lifetime.end.p0(i64 16, ptr nonnull %3) #33
  br label %"_ZSt10__invoke_rIvRZN6duckdb23CatalogSetSecretStorage12LookupSecretERKNSt7__cxx1112basic_stringIcSt11char_traitsIcESaIcEEES9_NS0_12optional_ptrINS0_18CatalogTransactionELb1EEEE3$_0JRNS0_12CatalogEntryEEENSt9enable_ifIXsr6__and_ISt7is_voidIT_ESt14__is_invocableIT0_JDpT1_EEEE5valueESJ_E4typeEOSM_DpOSN_.exit"

38:                                               ; preds = %13
  %39 = landingpad { ptr, i32 }
          cleanup
  call void @_ZN6duckdb11SecretMatchD2Ev(ptr noundef nonnull align 8 dereferenceable(16) %3) #33
  call void @llvm.lifetime.end.p0(i64 16, ptr nonnull %3) #33
  resume { ptr, i32 } %39

"_ZSt10__invoke_rIvRZN6duckdb23CatalogSetSecretStorage12LookupSecretERKNSt7__cxx1112basic_stringIcSt11char_traitsIcESaIcEEES9_NS0_12optional_ptrINS0_18CatalogTransactionELb1EEEE3$_0JRNS0_12CatalogEntryEEENSt9enable_ifIXsr6__and_ISt7is_voidIT_ESt14__is_invocableIT0_JDpT1_EEEE5valueESJ_E4typeEOSM_DpOSN_.exit": ; preds = %2, %_ZN6duckdb11SecretMatchD2Ev.exit.i.i.i
  ret void
}